; Function Attrs: mustprogress nofree norecurse nosync nounwind willreturn memory(read, argmem: readwrite, inaccessiblemem: none) uwtable
define internal void @spl_heap_it_get_current_key(ptr nocapture noundef readonly %0, ptr nocapture noundef writeonly %1) #11 {
  %3 = getelementptr inbounds i8, ptr %0, i64 56
  %4 = load ptr, ptr %3, align 8
  %5 = getelementptr inbounds i8, ptr %4, i64 -32
  %6 = load ptr, ptr %5, align 8
  %7 = getelementptr inbounds i8, ptr %6, i64 32
  %8 = load i32, ptr %7, align 8
  %9 = add nsw i32 %8, -1
  %10 = sext i32 %9 to i64
  store i64 %10, ptr %1, align 8
  %11 = getelementptr inbounds i8, ptr %1, i64 8
  store i32 4, ptr %11, align 8
  ret void
}